; Function Attrs: mustprogress uwtable
define noundef i32 @_ZN5sim_t3runEv(ptr noundef nonnull align 8 dereferenceable(2888) %0) local_unnamed_addr #6 align 2 {
  %2 = getelementptr inbounds i8, ptr %0, i64 1456
  %3 = load i8, ptr %2, align 8
  %4 = and i8 %3, 1
  %.not = icmp eq i8 %4, 0
  br i1 %.not, label %5, label %_ZN5sim_t15set_procs_debugEb.exit

5:                                                ; preds = %1
  %6 = getelementptr inbounds i8, ptr %0, i64 1458
  %7 = load i8, ptr %6, align 2
  %8 = and i8 %7, 1
  %.not1 = icmp eq i8 %8, 0
  br i1 %.not1, label %_ZN5sim_t15set_procs_debugEb.exit, label %9

9:                                                ; preds = %5
  %10 = getelementptr inbounds i8, ptr %0, i64 864
  %11 = getelementptr inbounds i8, ptr %0, i64 872
  %12 = load ptr, ptr %11, align 8
  %13 = load ptr, ptr %10, align 8
  %.not.i = icmp eq ptr %12, %13
  br i1 %.not.i, label %_ZN5sim_t15set_procs_debugEb.exit, label %.lr.ph.i

.lr.ph.i:                                         ; preds = %9, %.lr.ph.i
  %14 = phi ptr [ %19, %.lr.ph.i ], [ %13, %9 ]
  %.04.i = phi i64 [ %17, %.lr.ph.i ], [ 0, %9 ]
  %15 = getelementptr inbounds ptr, ptr %14, i64 %.04.i
  %16 = load ptr, ptr %15, align 8
  tail call void @_ZN11processor_t9set_debugEb(ptr noundef nonnull align 8 dereferenceable(659880) %16, i1 noundef zeroext true)
  %17 = add nuw i64 %.04.i, 1
  %18 = load ptr, ptr %11, align 8
  %19 = load ptr, ptr %10, align 8
  %20 = ptrtoint ptr %18 to i64
  %21 = ptrtoint ptr %19 to i64
  %22 = sub i64 %20, %21
  %23 = ashr exact i64 %22, 3
  %24 = icmp ult i64 %17, %23
  br i1 %24, label %.lr.ph.i, label %_ZN5sim_t15set_procs_debugEb.exit, !llvm.loop !18

_ZN5sim_t15set_procs_debugEb.exit:                ; preds = %.lr.ph.i, %9, %5, %1
  %25 = getelementptr inbounds i8, ptr %0, i64 712
  %26 = load i32, ptr %25, align 8
  %27 = getelementptr inbounds i8, ptr %0, i64 8
  store i32 %26, ptr %27, align 8
  %28 = tail call noundef i32 @_ZN6htif_t3runEv(ptr noundef nonnull align 8 dereferenceable(696) %0)
  ret i32 %28
}